target datalayout = "e-m:e-p270:32:32-p271:32:32-p272:64:64-i64:64-i128:128-f80:128-n8:16:32:64-S128"
target triple = "x86_64-pc-linux-gnu"

@stdout = external global ptr, align 8
@.str.50 = private unnamed_addr constant [26 x i8] c"usage: %s [OPTIONS] file\0A\00", align 1
@.str.51 = private unnamed_addr constant [2 x i8] c"\0A\00", align 1
@.str.52 = private unnamed_addr constant [13 x i8] c"      ERROR\0A\00", align 1
@.str.53 = private unnamed_addr constant [84 x i8] c"     --enable-error-stack  Prints messages from the HDF5 error stack as they occur\0A\00", align 1
@.str.54 = private unnamed_addr constant [74 x i8] c"                           Optional value 2 also prints file open errors\0A\00", align 1
@.str.55 = private unnamed_addr constant [15 x i8] c"      OPTIONS\0A\00", align 1
@.str.56 = private unnamed_addr constant [59 x i8] c"     -h, --help            Print a usage message and exit\0A\00", align 1
@.str.57 = private unnamed_addr constant [58 x i8] c"     -V, --version         Print version number and exit\0A\00", align 1
@.str.58 = private unnamed_addr constant [51 x i8] c"     -f, --file            Print file information\0A\00", align 1
@.str.59 = private unnamed_addr constant [77 x i8] c"     -F, --filemetadata    Print file space information for file's metadata\0A\00", align 1
@.str.60 = private unnamed_addr constant [52 x i8] c"     -g, --group           Print group information\0A\00", align 1
@.str.61 = private unnamed_addr constant [79 x i8] c"     -l N, --links=N       Set the threshold for the # of links when printing\0A\00", align 1
@.str.62 = private unnamed_addr constant [83 x i8] c"                           information for small groups.  N is an integer greater\0A\00", align 1
@.str.63 = private unnamed_addr constant [66 x i8] c"                           than 0.  The default threshold is 10.\0A\00", align 1
@.str.64 = private unnamed_addr constant [78 x i8] c"     -G, --groupmetadata   Print file space information for groups' metadata\0A\00", align 1
@.str.65 = private unnamed_addr constant [54 x i8] c"     -d, --dset            Print dataset information\0A\00", align 1
@.str.66 = private unnamed_addr constant [84 x i8] c"     -m N, --dims=N        Set the threshold for the dimension sizes when printing\0A\00", align 1
@.str.67 = private unnamed_addr constant [85 x i8] c"                           information for small datasets.  N is an integer greater\0A\00", align 1
@.str.68 = private unnamed_addr constant [80 x i8] c"     -D, --dsetmetadata    Print file space information for datasets' metadata\0A\00", align 1
@.str.69 = private unnamed_addr constant [65 x i8] c"     -T, --dtypemetadata   Print datasets' datatype information\0A\00", align 1
@.str.70 = private unnamed_addr constant [56 x i8] c"     -A, --attribute       Print attribute information\0A\00", align 1
@.str.71 = private unnamed_addr constant [84 x i8] c"     -a N, --numattrs=N    Set the threshold for the # of attributes when printing\0A\00", align 1
@.str.72 = private unnamed_addr constant [92 x i8] c"                           information for small # of attributes.  N is an integer greater\0A\00", align 1
@.str.73 = private unnamed_addr constant [57 x i8] c"     -s, --freespace       Print free space information\0A\00", align 1
@.str.74 = private unnamed_addr constant [68 x i8] c"     -S, --summary         Print summary of file space information\0A\00", align 1
@.str.75 = private unnamed_addr constant [84 x i8] c"     --page-buffer-size=N  Set the page buffer cache size, N=non-negative integers\0A\00", align 1
@.str.76 = private unnamed_addr constant [73 x i8] c"     --s3-cred=<cred>      Access file on S3, using provided credential\0A\00", align 1
@.str.77 = private unnamed_addr constant [54 x i8] c"                           <cred> :: (region,id,key)\0A\00", align 1
@.str.78 = private unnamed_addr constant [76 x i8] c"                           If <cred> == \22(,,)\22, no authentication is used.\0A\00", align 1
@.str.79 = private unnamed_addr constant [75 x i8] c"     --hdfs-attrs=<attrs>  Access a file on HDFS with given configuration\0A\00", align 1
@.str.80 = private unnamed_addr constant [40 x i8] c"                           attributes.\0A\00", align 1
@.str.81 = private unnamed_addr constant [73 x i8] c"                           <attrs> :: (<namenode name>,<namenode port>,\0A\00", align 1
@.str.82 = private unnamed_addr constant [74 x i8] c"                                       <kerberos cache path>,<username>,\0A\00", align 1
@.str.83 = private unnamed_addr constant [55 x i8] c"                                       <buffer size>)\0A\00", align 1
@.str.84 = private unnamed_addr constant [78 x i8] c"                           If an attribute is empty, a default value will be\0A\00", align 1
@.str.85 = private unnamed_addr constant [34 x i8] c"                           used.\0A\00", align 1

; Function Attrs: nounwind uwtable
define internal void @usage(ptr noundef %0) #0 {
  %2 = alloca ptr, align 8
  store ptr %0, ptr %2, align 8, !tbaa !11
  %3 = load ptr, ptr @stdout, align 8, !tbaa !70
  %4 = call i32 @fflush(ptr noundef %3)
  %5 = load ptr, ptr @stdout, align 8, !tbaa !70
  %6 = load ptr, ptr %2, align 8, !tbaa !11
  %7 = call i32 (ptr, ptr, ...) @fprintf(ptr noundef %5, ptr noundef @.str.50, ptr noundef %6) #10
  %8 = load ptr, ptr @stdout, align 8, !tbaa !70
  %9 = call i32 (ptr, ptr, ...) @fprintf(ptr noundef %8, ptr noundef @.str.51) #10
  %10 = load ptr, ptr @stdout, align 8, !tbaa !70
  %11 = call i32 (ptr, ptr, ...) @fprintf(ptr noundef %10, ptr noundef @.str.52) #10
  %12 = load ptr, ptr @stdout, align 8, !tbaa !70
  %13 = call i32 (ptr, ptr, ...) @fprintf(ptr noundef %12, ptr noundef @.str.53) #10
  %14 = load ptr, ptr @stdout, align 8, !tbaa !70
  %15 = call i32 (ptr, ptr, ...) @fprintf(ptr noundef %14, ptr noundef @.str.54) #10
  %16 = load ptr, ptr @stdout, align 8, !tbaa !70
  %17 = call i32 (ptr, ptr, ...) @fprintf(ptr noundef %16, ptr noundef @.str.55) #10
  %18 = load ptr, ptr @stdout, align 8, !tbaa !70
  %19 = call i32 (ptr, ptr, ...) @fprintf(ptr noundef %18, ptr noundef @.str.56) #10
  %20 = load ptr, ptr @stdout, align 8, !tbaa !70
  %21 = call i32 (ptr, ptr, ...) @fprintf(ptr noundef %20, ptr noundef @.str.57) #10
  %22 = load ptr, ptr @stdout, align 8, !tbaa !70
  %23 = call i32 (ptr, ptr, ...) @fprintf(ptr noundef %22, ptr noundef @.str.58) #10
  %24 = load ptr, ptr @stdout, align 8, !tbaa !70
  %25 = call i32 (ptr, ptr, ...) @fprintf(ptr noundef %24, ptr noundef @.str.59) #10
  %26 = load ptr, ptr @stdout, align 8, !tbaa !70
  %27 = call i32 (ptr, ptr, ...) @fprintf(ptr noundef %26, ptr noundef @.str.60) #10
  %28 = load ptr, ptr @stdout, align 8, !tbaa !70
  %29 = call i32 (ptr, ptr, ...) @fprintf(ptr noundef %28, ptr noundef @.str.61) #10
  %30 = load ptr, ptr @stdout, align 8, !tbaa !70
  %31 = call i32 (ptr, ptr, ...) @fprintf(ptr noundef %30, ptr noundef @.str.62) #10
  %32 = load ptr, ptr @stdout, align 8, !tbaa !70
  %33 = call i32 (ptr, ptr, ...) @fprintf(ptr noundef %32, ptr noundef @.str.63) #10
  %34 = load ptr, ptr @stdout, align 8, !tbaa !70
  %35 = call i32 (ptr, ptr, ...) @fprintf(ptr noundef %34, ptr noundef @.str.64) #10
  %36 = load ptr, ptr @stdout, align 8, !tbaa !70
  %37 = call i32 (ptr, ptr, ...) @fprintf(ptr noundef %36, ptr noundef @.str.65) #10
  %38 = load ptr, ptr @stdout, align 8, !tbaa !70
  %39 = call i32 (ptr, ptr, ...) @fprintf(ptr noundef %38, ptr noundef @.str.66) #10
  %40 = load ptr, ptr @stdout, align 8, !tbaa !70
  %41 = call i32 (ptr, ptr, ...) @fprintf(ptr noundef %40, ptr noundef @.str.67) #10
  %42 = load ptr, ptr @stdout, align 8, !tbaa !70
  %43 = call i32 (ptr, ptr, ...) @fprintf(ptr noundef %42, ptr noundef @.str.63) #10
  %44 = load ptr, ptr @stdout, align 8, !tbaa !70
  %45 = call i32 (ptr, ptr, ...) @fprintf(ptr noundef %44, ptr noundef @.str.68) #10
  %46 = load ptr, ptr @stdout, align 8, !tbaa !70
  %47 = call i32 (ptr, ptr, ...) @fprintf(ptr noundef %46, ptr noundef @.str.69) #10
  %48 = load ptr, ptr @stdout, align 8, !tbaa !70
  %49 = call i32 (ptr, ptr, ...) @fprintf(ptr noundef %48, ptr noundef @.str.70) #10
  %50 = load ptr, ptr @stdout, align 8, !tbaa !70
  %51 = call i32 (ptr, ptr, ...) @fprintf(ptr noundef %50, ptr noundef @.str.71) #10
  %52 = load ptr, ptr @stdout, align 8, !tbaa !70
  %53 = call i32 (ptr, ptr, ...) @fprintf(ptr noundef %52, ptr noundef @.str.72) #10
  %54 = load ptr, ptr @stdout, align 8, !tbaa !70
  %55 = call i32 (ptr, ptr, ...) @fprintf(ptr noundef %54, ptr noundef @.str.63) #10
  %56 = load ptr, ptr @stdout, align 8, !tbaa !70
  %57 = call i32 (ptr, ptr, ...) @fprintf(ptr noundef %56, ptr noundef @.str.73) #10
  %58 = load ptr, ptr @stdout, align 8, !tbaa !70
  %59 = call i32 (ptr, ptr, ...) @fprintf(ptr noundef %58, ptr noundef @.str.74) #10
  %60 = load ptr, ptr @stdout, align 8, !tbaa !70
  %61 = call i32 (ptr, ptr, ...) @fprintf(ptr noundef %60, ptr noundef @.str.75) #10
  %62 = load ptr, ptr @stdout, align 8, !tbaa !70
  %63 = call i32 (ptr, ptr, ...) @fprintf(ptr noundef %62, ptr noundef @.str.76) #10
  %64 = load ptr, ptr @stdout, align 8, !tbaa !70
  %65 = call i32 (ptr, ptr, ...) @fprintf(ptr noundef %64, ptr noundef @.str.77) #10
  %66 = load ptr, ptr @stdout, align 8, !tbaa !70
  %67 = call i32 (ptr, ptr, ...) @fprintf(ptr noundef %66, ptr noundef @.str.78) #10
  %68 = load ptr, ptr @stdout, align 8, !tbaa !70
  %69 = call i32 (ptr, ptr, ...) @fprintf(ptr noundef %68, ptr noundef @.str.79) #10
  %70 = load ptr, ptr @stdout, align 8, !tbaa !70
  %71 = call i32 (ptr, ptr, ...) @fprintf(ptr noundef %70, ptr noundef @.str.80) #10
  %72 = load ptr, ptr @stdout, align 8, !tbaa !70
  %73 = call i32 (ptr, ptr, ...) @fprintf(ptr noundef %72, ptr noundef @.str.81) #10
  %74 = load ptr, ptr @stdout, align 8, !tbaa !70
  %75 = call i32 (ptr, ptr, ...) @fprintf(ptr noundef %74, ptr noundef @.str.82) #10
  %76 = load ptr, ptr @stdout, align 8, !tbaa !70
  %77 = call i32 (ptr, ptr, ...) @fprintf(ptr noundef %76, ptr noundef @.str.83) #10
  %78 = load ptr, ptr @stdout, align 8, !tbaa !70
  %79 = call i32 (ptr, ptr, ...) @fprintf(ptr noundef %78, ptr noundef @.str.84) #10
  %80 = load ptr, ptr @stdout, align 8, !tbaa !70
  %81 = call i32 (ptr, ptr, ...) @fprintf(ptr noundef %80, ptr noundef @.str.85) #10
  ret void
}