; Function Attrs: nofree nounwind uwtable
define internal fastcc void @usage(ptr noundef %0) unnamed_addr #8 {
  %2 = load ptr, ptr @stdout, align 8, !tbaa !59
  %3 = tail call i32 @fflush(ptr noundef %2)
  %4 = load ptr, ptr @stdout, align 8, !tbaa !59
  %5 = tail call i32 (ptr, ptr, ...) @fprintf(ptr noundef %4, ptr noundef nonnull @.str.50, ptr noundef %0) #15
  %6 = load ptr, ptr @stdout, align 8, !tbaa !59
  %fputc = tail call i32 @fputc(i32 10, ptr %6)
  %7 = load ptr, ptr @stdout, align 8, !tbaa !59
  %8 = tail call i64 @fwrite(ptr nonnull @.str.52, i64 12, i64 1, ptr %7)
  %9 = load ptr, ptr @stdout, align 8, !tbaa !59
  %10 = tail call i64 @fwrite(ptr nonnull @.str.53, i64 83, i64 1, ptr %9)
  %11 = load ptr, ptr @stdout, align 8, !tbaa !59
  %12 = tail call i64 @fwrite(ptr nonnull @.str.54, i64 73, i64 1, ptr %11)
  %13 = load ptr, ptr @stdout, align 8, !tbaa !59
  %14 = tail call i64 @fwrite(ptr nonnull @.str.55, i64 14, i64 1, ptr %13)
  %15 = load ptr, ptr @stdout, align 8, !tbaa !59
  %16 = tail call i64 @fwrite(ptr nonnull @.str.56, i64 58, i64 1, ptr %15)
  %17 = load ptr, ptr @stdout, align 8, !tbaa !59
  %18 = tail call i64 @fwrite(ptr nonnull @.str.57, i64 57, i64 1, ptr %17)
  %19 = load ptr, ptr @stdout, align 8, !tbaa !59
  %20 = tail call i64 @fwrite(ptr nonnull @.str.58, i64 50, i64 1, ptr %19)
  %21 = load ptr, ptr @stdout, align 8, !tbaa !59
  %22 = tail call i64 @fwrite(ptr nonnull @.str.59, i64 76, i64 1, ptr %21)
  %23 = load ptr, ptr @stdout, align 8, !tbaa !59
  %24 = tail call i64 @fwrite(ptr nonnull @.str.60, i64 51, i64 1, ptr %23)
  %25 = load ptr, ptr @stdout, align 8, !tbaa !59
  %26 = tail call i64 @fwrite(ptr nonnull @.str.61, i64 78, i64 1, ptr %25)
  %27 = load ptr, ptr @stdout, align 8, !tbaa !59
  %28 = tail call i64 @fwrite(ptr nonnull @.str.62, i64 82, i64 1, ptr %27)
  %29 = load ptr, ptr @stdout, align 8, !tbaa !59
  %30 = tail call i64 @fwrite(ptr nonnull @.str.63, i64 65, i64 1, ptr %29)
  %31 = load ptr, ptr @stdout, align 8, !tbaa !59
  %32 = tail call i64 @fwrite(ptr nonnull @.str.64, i64 77, i64 1, ptr %31)
  %33 = load ptr, ptr @stdout, align 8, !tbaa !59
  %34 = tail call i64 @fwrite(ptr nonnull @.str.65, i64 53, i64 1, ptr %33)
  %35 = load ptr, ptr @stdout, align 8, !tbaa !59
  %36 = tail call i64 @fwrite(ptr nonnull @.str.66, i64 83, i64 1, ptr %35)
  %37 = load ptr, ptr @stdout, align 8, !tbaa !59
  %38 = tail call i64 @fwrite(ptr nonnull @.str.67, i64 84, i64 1, ptr %37)
  %39 = load ptr, ptr @stdout, align 8, !tbaa !59
  %40 = tail call i64 @fwrite(ptr nonnull @.str.63, i64 65, i64 1, ptr %39)
  %41 = load ptr, ptr @stdout, align 8, !tbaa !59
  %42 = tail call i64 @fwrite(ptr nonnull @.str.68, i64 79, i64 1, ptr %41)
  %43 = load ptr, ptr @stdout, align 8, !tbaa !59
  %44 = tail call i64 @fwrite(ptr nonnull @.str.69, i64 64, i64 1, ptr %43)
  %45 = load ptr, ptr @stdout, align 8, !tbaa !59
  %46 = tail call i64 @fwrite(ptr nonnull @.str.70, i64 55, i64 1, ptr %45)
  %47 = load ptr, ptr @stdout, align 8, !tbaa !59
  %48 = tail call i64 @fwrite(ptr nonnull @.str.71, i64 83, i64 1, ptr %47)
  %49 = load ptr, ptr @stdout, align 8, !tbaa !59
  %50 = tail call i64 @fwrite(ptr nonnull @.str.72, i64 91, i64 1, ptr %49)
  %51 = load ptr, ptr @stdout, align 8, !tbaa !59
  %52 = tail call i64 @fwrite(ptr nonnull @.str.63, i64 65, i64 1, ptr %51)
  %53 = load ptr, ptr @stdout, align 8, !tbaa !59
  %54 = tail call i64 @fwrite(ptr nonnull @.str.73, i64 56, i64 1, ptr %53)
  %55 = load ptr, ptr @stdout, align 8, !tbaa !59
  %56 = tail call i64 @fwrite(ptr nonnull @.str.74, i64 67, i64 1, ptr %55)
  %57 = load ptr, ptr @stdout, align 8, !tbaa !59
  %58 = tail call i64 @fwrite(ptr nonnull @.str.75, i64 83, i64 1, ptr %57)
  %59 = load ptr, ptr @stdout, align 8, !tbaa !59
  %60 = tail call i64 @fwrite(ptr nonnull @.str.76, i64 72, i64 1, ptr %59)
  %61 = load ptr, ptr @stdout, align 8, !tbaa !59
  %62 = tail call i64 @fwrite(ptr nonnull @.str.77, i64 53, i64 1, ptr %61)
  %63 = load ptr, ptr @stdout, align 8, !tbaa !59
  %64 = tail call i64 @fwrite(ptr nonnull @.str.78, i64 75, i64 1, ptr %63)
  %65 = load ptr, ptr @stdout, align 8, !tbaa !59
  %66 = tail call i64 @fwrite(ptr nonnull @.str.79, i64 74, i64 1, ptr %65)
  %67 = load ptr, ptr @stdout, align 8, !tbaa !59
  %68 = tail call i64 @fwrite(ptr nonnull @.str.80, i64 39, i64 1, ptr %67)
  %69 = load ptr, ptr @stdout, align 8, !tbaa !59
  %70 = tail call i64 @fwrite(ptr nonnull @.str.81, i64 72, i64 1, ptr %69)
  %71 = load ptr, ptr @stdout, align 8, !tbaa !59
  %72 = tail call i64 @fwrite(ptr nonnull @.str.82, i64 73, i64 1, ptr %71)
  %73 = load ptr, ptr @stdout, align 8, !tbaa !59
  %74 = tail call i64 @fwrite(ptr nonnull @.str.83, i64 54, i64 1, ptr %73)
  %75 = load ptr, ptr @stdout, align 8, !tbaa !59
  %76 = tail call i64 @fwrite(ptr nonnull @.str.84, i64 77, i64 1, ptr %75)
  %77 = load ptr, ptr @stdout, align 8, !tbaa !59
  %78 = tail call i64 @fwrite(ptr nonnull @.str.85, i64 33, i64 1, ptr %77)
  ret void
}